target datalayout = "e-m:e-p270:32:32-p271:32:32-p272:64:64-i64:64-i128:128-f80:128-n8:16:32:64-S128"
target triple = "x86_64-pc-linux-gnu"

%struct.PageHeaderData = type { %struct.PageXLogRecPtr, i16, i16, i16, i16, i16, i16, i32, [0 x %struct.ItemIdData] }
%struct.PageXLogRecPtr = type { i32, i32 }
%struct.ItemIdData = type { i32 }

; Function Attrs: inlinehint nounwind uwtable
define internal ptr @PageGetItemId(ptr noundef %0, i16 noundef zeroext %1) #3 {
  %3 = alloca ptr, align 8
  %4 = alloca i16, align 2
  store ptr %0, ptr %3, align 8
  store i16 %1, ptr %4, align 2
  %5 = load ptr, ptr %3, align 8
  %6 = getelementptr inbounds nuw %struct.PageHeaderData, ptr %5, i32 0, i32 8
  %7 = load i16, ptr %4, align 2
  %8 = zext i16 %7 to i32
  %9 = sub i32 %8, 1
  %10 = sext i32 %9 to i64
  %11 = getelementptr inbounds [0 x %struct.ItemIdData], ptr %6, i64 0, i64 %10
  ret ptr %11
}

; Function Attrs: inlinehint nounwind uwtable
define internal zeroext i1 @PageHasFreeLinePointers(ptr noundef %0) #3 {
  %2 = alloca ptr, align 8
  store ptr %0, ptr %2, align 8
  %3 = load ptr, ptr %2, align 8
  %4 = getelementptr inbounds nuw %struct.PageHeaderData, ptr %3, i32 0, i32 2
  %5 = load i16, ptr %4, align 2
  %6 = zext i16 %5 to i32
  %7 = and i32 %6, 1
  %8 = icmp ne i32 %7, 0
  ret i1 %8
}

; Function Attrs: inlinehint nounwind uwtable
define internal zeroext i16 @PageGetMaxOffsetNumber(ptr noundef %0) #3 {
  %2 = alloca i16, align 2
  %3 = alloca ptr, align 8
  %4 = alloca ptr, align 8
  %5 = alloca i32, align 4
  store ptr %0, ptr %3, align 8
  call void @llvm.lifetime.start.p0(i64 8, ptr %4) #8
  %6 = load ptr, ptr %3, align 8
  store ptr %6, ptr %4, align 8
  %7 = load ptr, ptr %4, align 8
  %8 = getelementptr inbounds nuw %struct.PageHeaderData, ptr %7, i32 0, i32 3
  %9 = load i16, ptr %8, align 4
  %10 = zext i16 %9 to i64
  %11 = icmp ule i64 %10, 24
  br i1 %11, label %12, label %13

12:                                               ; preds = %1
  store i16 0, ptr %2, align 2
  store i32 1, ptr %5, align 4
  br label %21

13:                                               ; preds = %1
  %14 = load ptr, ptr %4, align 8
  %15 = getelementptr inbounds nuw %struct.PageHeaderData, ptr %14, i32 0, i32 3
  %16 = load i16, ptr %15, align 4
  %17 = zext i16 %16 to i64
  %18 = sub i64 %17, 24
  %19 = udiv i64 %18, 4
  %20 = trunc i64 %19 to i16
  store i16 %20, ptr %2, align 2
  store i32 1, ptr %5, align 4
  br label %21

21:                                               ; preds = %13, %12
  call void @llvm.lifetime.end.p0(i64 8, ptr %4) #8
  %22 = load i16, ptr %2, align 2
  ret i16 %22
}

; Function Attrs: nounwind uwtable
define dso_local i64 @PageGetFreeSpace(ptr noundef %0) #0 {
  %2 = alloca i64, align 8
  %3 = alloca ptr, align 8
  %4 = alloca ptr, align 8
  %5 = alloca i32, align 4
  %6 = alloca i32, align 4
  store ptr %0, ptr %3, align 8
  call void @llvm.lifetime.start.p0(i64 8, ptr %4) #8
  %7 = load ptr, ptr %3, align 8
  store ptr %7, ptr %4, align 8
  call void @llvm.lifetime.start.p0(i64 4, ptr %5) #8
  %8 = load ptr, ptr %4, align 8
  %9 = getelementptr inbounds nuw %struct.PageHeaderData, ptr %8, i32 0, i32 4
  %10 = load i16, ptr %9, align 2
  %11 = zext i16 %10 to i32
  %12 = load ptr, ptr %4, align 8
  %13 = getelementptr inbounds nuw %struct.PageHeaderData, ptr %12, i32 0, i32 3
  %14 = load i16, ptr %13, align 4
  %15 = zext i16 %14 to i32
  %16 = sub i32 %11, %15
  store i32 %16, ptr %5, align 4
  %17 = load i32, ptr %5, align 4
  %18 = icmp slt i32 %17, 4
  br i1 %18, label %19, label %20

19:                                               ; preds = %1
  store i64 0, ptr %2, align 8
  store i32 1, ptr %6, align 4
  br label %27

20:                                               ; preds = %1
  %21 = load i32, ptr %5, align 4
  %22 = sext i32 %21 to i64
  %23 = sub i64 %22, 4
  %24 = trunc i64 %23 to i32
  store i32 %24, ptr %5, align 4
  %25 = load i32, ptr %5, align 4
  %26 = sext i32 %25 to i64
  store i64 %26, ptr %2, align 8
  store i32 1, ptr %6, align 4
  br label %27

27:                                               ; preds = %20, %19
  call void @llvm.lifetime.end.p0(i64 4, ptr %5) #8
  call void @llvm.lifetime.end.p0(i64 8, ptr %4) #8
  %28 = load i64, ptr %2, align 8
  ret i64 %28
}

; Function Attrs: nounwind uwtable
define dso_local i64 @PageGetHeapFreeSpace(ptr noundef %0) #0 {
  %2 = alloca ptr, align 8
  %3 = alloca i64, align 8
  %4 = alloca i16, align 2
  %5 = alloca i16, align 2
  %6 = alloca ptr, align 8
  %7 = alloca i32, align 4
  %8 = alloca i32, align 4
  store ptr %0, ptr %2, align 8
  call void @llvm.lifetime.start.p0(i64 8, ptr %3) #8
  %9 = load ptr, ptr %2, align 8
  %10 = call i64 @PageGetFreeSpace(ptr noundef %9)
  store i64 %10, ptr %3, align 8
  %11 = load i64, ptr %3, align 8
  %12 = icmp ugt i64 %11, 0
  br i1 %12, label %13, label %62

13:                                               ; preds = %1
  call void @llvm.lifetime.start.p0(i64 2, ptr %4) #8
  call void @llvm.lifetime.start.p0(i64 2, ptr %5) #8
  %14 = load ptr, ptr %2, align 8
  %15 = call zeroext i16 @PageGetMaxOffsetNumber(ptr noundef %14)
  store i16 %15, ptr %5, align 2
  %16 = load i16, ptr %5, align 2
  %17 = zext i16 %16 to i32
  %18 = icmp sge i32 %17, 291
  br i1 %18, label %19, label %61

19:                                               ; preds = %13
  %20 = load ptr, ptr %2, align 8
  %21 = call zeroext i1 @PageHasFreeLinePointers(ptr noundef %20)
  br i1 %21, label %22, label %59

22:                                               ; preds = %19
  store i16 1, ptr %4, align 2
  br label %23

23:                                               ; preds = %46, %22
  %24 = load i16, ptr %4, align 2
  %25 = zext i16 %24 to i32
  %26 = load i16, ptr %5, align 2
  %27 = zext i16 %26 to i32
  %28 = icmp sle i32 %25, %27
  br i1 %28, label %29, label %51

29:                                               ; preds = %23
  call void @llvm.lifetime.start.p0(i64 8, ptr %6) #8
  br label %30

30:                                               ; preds = %29
  br label %31

31:                                               ; preds = %30
  br label %32

32:                                               ; preds = %31
  store i32 1, ptr %7, align 4
  %33 = load ptr, ptr %2, align 8
  %34 = load i16, ptr %4, align 2
  %35 = call ptr @PageGetItemId(ptr noundef %33, i16 noundef zeroext %34)
  store ptr %35, ptr %6, align 8
  %36 = load ptr, ptr %6, align 8
  %37 = load i32, ptr %36, align 4
  %38 = lshr i32 %37, 15
  %39 = and i32 %38, 3
  %40 = icmp ne i32 %39, 0
  br i1 %40, label %42, label %41

41:                                               ; preds = %32
  store i32 2, ptr %8, align 4
  br label %43

42:                                               ; preds = %32
  store i32 0, ptr %8, align 4
  br label %43

43:                                               ; preds = %42, %41
  call void @llvm.lifetime.end.p0(i64 8, ptr %6) #8
  %44 = load i32, ptr %8, align 4
  switch i32 %44, label %64 [
    i32 0, label %45
    i32 2, label %51
  ]

45:                                               ; preds = %43
  br label %46

46:                                               ; preds = %45
  %47 = load i16, ptr %4, align 2
  %48 = zext i16 %47 to i32
  %49 = add i32 1, %48
  %50 = trunc i32 %49 to i16
  store i16 %50, ptr %4, align 2
  br label %23, !llvm.loop !24

51:                                               ; preds = %43, %23
  %52 = load i16, ptr %4, align 2
  %53 = zext i16 %52 to i32
  %54 = load i16, ptr %5, align 2
  %55 = zext i16 %54 to i32
  %56 = icmp sgt i32 %53, %55
  br i1 %56, label %57, label %58

57:                                               ; preds = %51
  store i64 0, ptr %3, align 8
  br label %58

58:                                               ; preds = %57, %51
  br label %60

59:                                               ; preds = %19
  store i64 0, ptr %3, align 8
  br label %60

60:                                               ; preds = %59, %58
  br label %61

61:                                               ; preds = %60, %13
  call void @llvm.lifetime.end.p0(i64 2, ptr %5) #8
  call void @llvm.lifetime.end.p0(i64 2, ptr %4) #8
  br label %62

62:                                               ; preds = %61, %1
  %63 = load i64, ptr %3, align 8
  store i32 1, ptr %8, align 4
  call void @llvm.lifetime.end.p0(i64 8, ptr %3) #8
  ret i64 %63

64:                                               ; preds = %43
  unreachable
}