; Function Attrs: nofree norecurse nosync nounwind memory(argmem: read) uwtable
define dso_local range(i64 0, 65532) i64 @PageGetHeapFreeSpace(ptr noundef readonly captures(none) %0) local_unnamed_addr #9 {
  %2 = getelementptr inbounds nuw i8, ptr %0, i64 14
  %3 = load i16, ptr %2, align 2
  %4 = zext i16 %3 to i32
  %5 = getelementptr inbounds nuw i8, ptr %0, i64 12
  %6 = load i16, ptr %5, align 4
  %7 = zext i16 %6 to i32
  %8 = sub nsw i32 %4, %7
  %9 = tail call i32 @llvm.smax.i32(i32 %8, i32 4)
  %narrow.i = add nsw i32 %9, -4
  %.not = icmp eq i32 %narrow.i, 0
  br i1 %.not, label %.loopexit, label %10

10:                                               ; preds = %1
  %11 = icmp ult i16 %6, 25
  %12 = add nuw nsw i32 %7, 262120
  %13 = lshr i32 %12, 2
  %14 = trunc i32 %13 to i16
  %.0.i23 = select i1 %11, i16 0, i16 %14
  %15 = icmp samesign ugt i16 %.0.i23, 290
  br i1 %15, label %16, label %.loopexit

16:                                               ; preds = %10
  %17 = getelementptr i8, ptr %0, i64 10
  %.val22 = load i16, ptr %17, align 2
  %18 = and i16 %.val22, 1
  %.not24 = icmp eq i16 %18, 0
  br i1 %.not24, label %.loopexit, label %.lr.ph.preheader

.lr.ph.preheader:                                 ; preds = %16
  %19 = getelementptr inbounds nuw i8, ptr %0, i64 24
  br label %.lr.ph

20:                                               ; preds = %.lr.ph
  %21 = add i16 %.01526, 1
  %.not20 = icmp ugt i16 %21, %.0.i23
  br i1 %.not20, label %.loopexit, label %.lr.ph, !llvm.loop !20

.lr.ph:                                           ; preds = %.lr.ph.preheader, %20
  %.01526 = phi i16 [ %21, %20 ], [ 1, %.lr.ph.preheader ]
  %22 = zext i16 %.01526 to i64
  %23 = add nsw i64 %22, -1
  %24 = getelementptr inbounds [0 x %struct.ItemIdData], ptr %19, i64 0, i64 %23
  %25 = load i32, ptr %24, align 4
  %26 = and i32 %25, 98304
  %.not21 = icmp eq i32 %26, 0
  br i1 %.not21, label %.loopexit, label %20

.loopexit:                                        ; preds = %.lr.ph, %20, %10, %16, %1
  %.014.shrunk = phi i32 [ 0, %1 ], [ %narrow.i, %10 ], [ 0, %16 ], [ %narrow.i, %.lr.ph ], [ 0, %20 ]
  %.014 = zext nneg i32 %.014.shrunk to i64
  ret i64 %.014
}